
main.elf:     file format elf32-littleriscv


Disassembly of section .text:

00000000 <_start>:
   0:	00010137          	lui	sp,0x10
   4:	00010113          	mv	sp,sp
   8:	3050e073          	csrsi	mtvec,1
   c:	30046073          	csrsi	mstatus,8
  10:	008000ef          	jal	18 <main>

00000014 <_forever>:
  14:	0000006f          	j	14 <_forever>

00000018 <main>:
  18:	fe010113          	addi	sp,sp,-32 # ffe0 <_stack_bottom+0x3e0>
  1c:	00112e23          	sw	ra,28(sp)
  20:	00812c23          	sw	s0,24(sp)
  24:	02010413          	addi	s0,sp,32
  28:	00200793          	li	a5,2
  2c:	fef42623          	sw	a5,-20(s0)
  30:	00300793          	li	a5,3
  34:	fef42423          	sw	a5,-24(s0)
  38:	fec42703          	lw	a4,-20(s0)
  3c:	fe842783          	lw	a5,-24(s0)
  40:	00f707b3          	add	a5,a4,a5
  44:	fef42223          	sw	a5,-28(s0)
  48:	000047b7          	lui	a5,0x4
  4c:	fe442703          	lw	a4,-28(s0)
  50:	00e7a023          	sw	a4,0(a5) # 4000 <Exception_Handler+0x3f94>
  54:	00100073          	ebreak
  58:	00000013          	nop
  5c:	01c12083          	lw	ra,28(sp)
  60:	01812403          	lw	s0,24(sp)
  64:	02010113          	addi	sp,sp,32
  68:	00008067          	ret

0000006c <Exception_Handler>:
  6c:	ff010113          	addi	sp,sp,-16
  70:	00112623          	sw	ra,12(sp)
  74:	00812423          	sw	s0,8(sp)
  78:	01010413          	addi	s0,sp,16
  7c:	0000006f          	j	7c <Exception_Handler+0x10>

Disassembly of section .ehandler:

00008000 <_Exception_Handler>:
    8000:	86cf806f          	j	6c <Exception_Handler>
